target datalayout = "e-m:e-p270:32:32-p271:32:32-p272:64:64-i64:64-i128:128-f80:128-n8:16:32:64-S128"
target triple = "x86_64-pc-linux-gnu"

%struct.Nm_Man_t_ = type { ptr, ptr, i32, i32, i32, i32, ptr }
%struct.Nm_Entry_t_ = type { i32, i32, ptr, ptr, ptr, [0 x i8] }

; Function Attrs: nounwind uwtable
define internal i32 @Nm_HashNumber(i32 noundef %0, i32 noundef %1) #0 {
  %3 = alloca i32, align 4
  %4 = alloca i32, align 4
  %5 = alloca i32, align 4
  store i32 %0, ptr %3, align 4, !tbaa !28
  store i32 %1, ptr %4, align 4, !tbaa !28
  call void @llvm.lifetime.start.p0(i64 4, ptr %5) #8
  store i32 0, ptr %5, align 4, !tbaa !28
  %6 = load i32, ptr %3, align 4, !tbaa !28
  %7 = and i32 %6, 255
  %8 = mul nsw i32 %7, 7937
  %9 = load i32, ptr %5, align 4, !tbaa !28
  %10 = xor i32 %9, %8
  store i32 %10, ptr %5, align 4, !tbaa !28
  %11 = load i32, ptr %3, align 4, !tbaa !28
  %12 = ashr i32 %11, 8
  %13 = and i32 %12, 255
  %14 = mul nsw i32 %13, 2971
  %15 = load i32, ptr %5, align 4, !tbaa !28
  %16 = xor i32 %15, %14
  store i32 %16, ptr %5, align 4, !tbaa !28
  %17 = load i32, ptr %3, align 4, !tbaa !28
  %18 = ashr i32 %17, 16
  %19 = and i32 %18, 255
  %20 = mul nsw i32 %19, 911
  %21 = load i32, ptr %5, align 4, !tbaa !28
  %22 = xor i32 %21, %20
  store i32 %22, ptr %5, align 4, !tbaa !28
  %23 = load i32, ptr %3, align 4, !tbaa !28
  %24 = ashr i32 %23, 24
  %25 = and i32 %24, 255
  %26 = mul nsw i32 %25, 353
  %27 = load i32, ptr %5, align 4, !tbaa !28
  %28 = xor i32 %27, %26
  store i32 %28, ptr %5, align 4, !tbaa !28
  %29 = load i32, ptr %5, align 4, !tbaa !28
  %30 = load i32, ptr %4, align 4, !tbaa !28
  %31 = urem i32 %29, %30
  call void @llvm.lifetime.end.p0(i64 4, ptr %5) #8
  ret i32 %31
}

; Function Attrs: nounwind uwtable
define ptr @Nm_ManTableLookupId(ptr noundef %0, i32 noundef %1) #0 {
  %3 = alloca ptr, align 8
  %4 = alloca ptr, align 8
  %5 = alloca i32, align 4
  %6 = alloca ptr, align 8
  %7 = alloca i32, align 4
  store ptr %0, ptr %4, align 8, !tbaa !3
  store i32 %1, ptr %5, align 4, !tbaa !28
  call void @llvm.lifetime.start.p0(i64 8, ptr %6) #8
  %8 = load ptr, ptr %4, align 8, !tbaa !3
  %9 = getelementptr inbounds nuw %struct.Nm_Man_t_, ptr %8, i32 0, i32 0
  %10 = load ptr, ptr %9, align 8, !tbaa !17
  %11 = load i32, ptr %5, align 4, !tbaa !28
  %12 = load ptr, ptr %4, align 8, !tbaa !3
  %13 = getelementptr inbounds nuw %struct.Nm_Man_t_, ptr %12, i32 0, i32 2
  %14 = load i32, ptr %13, align 8, !tbaa !15
  %15 = call i32 @Nm_HashNumber(i32 noundef %11, i32 noundef %14)
  %16 = zext i32 %15 to i64
  %17 = getelementptr inbounds nuw ptr, ptr %10, i64 %16
  %18 = load ptr, ptr %17, align 8, !tbaa !8
  store ptr %18, ptr %6, align 8, !tbaa !8
  br label %19

19:                                               ; preds = %31, %2
  %20 = load ptr, ptr %6, align 8, !tbaa !8
  %21 = icmp ne ptr %20, null
  br i1 %21, label %22, label %35

22:                                               ; preds = %19
  %23 = load ptr, ptr %6, align 8, !tbaa !8
  %24 = getelementptr inbounds nuw %struct.Nm_Entry_t_, ptr %23, i32 0, i32 1
  %25 = load i32, ptr %24, align 4, !tbaa !18
  %26 = load i32, ptr %5, align 4, !tbaa !28
  %27 = icmp eq i32 %25, %26
  br i1 %27, label %28, label %30

28:                                               ; preds = %22
  %29 = load ptr, ptr %6, align 8, !tbaa !8
  store ptr %29, ptr %3, align 8
  store i32 1, ptr %7, align 4
  br label %36

30:                                               ; preds = %22
  br label %31

31:                                               ; preds = %30
  %32 = load ptr, ptr %6, align 8, !tbaa !8
  %33 = getelementptr inbounds nuw %struct.Nm_Entry_t_, ptr %32, i32 0, i32 2
  %34 = load ptr, ptr %33, align 8, !tbaa !21
  store ptr %34, ptr %6, align 8, !tbaa !8
  br label %19, !llvm.loop !44

35:                                               ; preds = %19
  store ptr null, ptr %3, align 8
  store i32 1, ptr %7, align 4
  br label %36

36:                                               ; preds = %35, %28
  call void @llvm.lifetime.end.p0(i64 8, ptr %6) #8
  %37 = load ptr, ptr %3, align 8
  ret ptr %37
}