; Function Attrs: nofree norecurse nosync nounwind memory(read, inaccessiblemem: none) uwtable
define ptr @Nm_ManTableLookupId(ptr noundef readonly captures(none) %0, i32 noundef %1) local_unnamed_addr #4 {
  %3 = load ptr, ptr %0, align 8, !tbaa !13
  %4 = getelementptr inbounds nuw i8, ptr %0, i64 16
  %5 = load i32, ptr %4, align 8, !tbaa !11
  %6 = and i32 %1, 255
  %7 = mul nuw nsw i32 %6, 7937
  %8 = lshr i32 %1, 8
  %9 = and i32 %8, 255
  %10 = mul nuw nsw i32 %9, 2971
  %11 = lshr i32 %1, 16
  %12 = and i32 %11, 255
  %13 = mul nuw nsw i32 %12, 911
  %14 = lshr i32 %1, 24
  %15 = mul nuw nsw i32 %14, 353
  %16 = xor i32 %15, %7
  %17 = xor i32 %16, %10
  %18 = xor i32 %17, %13
  %19 = urem i32 %18, %5
  %20 = zext nneg i32 %19 to i64
  %21 = getelementptr inbounds nuw ptr, ptr %3, i64 %20
  %.09 = load ptr, ptr %21, align 8, !tbaa !19
  %.not10 = icmp eq ptr %.09, null
  br i1 %.not10, label %._crit_edge, label %.lr.ph

.lr.ph:                                           ; preds = %2, %25
  %.011 = phi ptr [ %.0, %25 ], [ %.09, %2 ]
  %22 = getelementptr inbounds nuw i8, ptr %.011, i64 4
  %23 = load i32, ptr %22, align 4, !tbaa !23
  %24 = icmp eq i32 %23, %1
  br i1 %24, label %._crit_edge, label %25

25:                                               ; preds = %.lr.ph
  %26 = getelementptr inbounds nuw i8, ptr %.011, i64 8
  %.0 = load ptr, ptr %26, align 8, !tbaa !19
  %.not = icmp eq ptr %.0, null
  br i1 %.not, label %._crit_edge, label %.lr.ph, !llvm.loop !39

._crit_edge:                                      ; preds = %.lr.ph, %25, %2
  %.0.lcssa = phi ptr [ null, %2 ], [ null, %25 ], [ %.011, %.lr.ph ]
  ret ptr %.0.lcssa
}